target datalayout = "e-m:e-p270:32:32-p271:32:32-p272:64:64-i64:64-i128:128-f80:128-n8:16:32:64-S128"
target triple = "x86_64-pc-linux-gnu"

%struct.test_fixture = type { ptr, ptr, i32, i32, i32, ptr, i32, ptr }

@newkey = internal global ptr null, align 8
@.str.14 = private unnamed_addr constant [31 x i8] c"../openssl/test/cmp_msg_test.c\00", align 1
@.str.34 = private unnamed_addr constant [19 x i8] c"test_cmp_create_cr\00", align 1
@.str.45 = private unnamed_addr constant [39 x i8] c"set1_newPkey(fixture->cmp_ctx, newkey)\00", align 1

; Function Attrs: nounwind uwtable
define internal void @tear_down(ptr noundef %0) #0 {
  %2 = alloca ptr, align 8
  store ptr %0, ptr %2, align 8, !tbaa !17
  %3 = load ptr, ptr %2, align 8, !tbaa !17
  %4 = getelementptr inbounds nuw %struct.test_fixture, ptr %3, i32 0, i32 1
  %5 = load ptr, ptr %4, align 8, !tbaa !28
  call void @OSSL_CMP_CTX_free(ptr noundef %5)
  %6 = load ptr, ptr %2, align 8, !tbaa !17
  %7 = getelementptr inbounds nuw %struct.test_fixture, ptr %6, i32 0, i32 5
  %8 = load ptr, ptr %7, align 8, !tbaa !37
  call void @OSSL_CMP_MSG_free(ptr noundef %8)
  %9 = load ptr, ptr %2, align 8, !tbaa !17
  %10 = getelementptr inbounds nuw %struct.test_fixture, ptr %9, i32 0, i32 7
  %11 = load ptr, ptr %10, align 8, !tbaa !30
  call void @OSSL_CMP_PKISI_free(ptr noundef %11)
  %12 = load ptr, ptr %2, align 8, !tbaa !17
  call void @CRYPTO_free(ptr noundef %12, ptr noundef @.str.14, i32 noundef 43)
  ret void
}

; Function Attrs: nounwind uwtable
define internal i32 @set1_newPkey(ptr noundef %0, ptr noundef %1) #0 {
  %3 = alloca i32, align 4
  %4 = alloca ptr, align 8
  %5 = alloca ptr, align 8
  store ptr %0, ptr %4, align 8, !tbaa !29
  store ptr %1, ptr %5, align 8, !tbaa !4
  %6 = load ptr, ptr %5, align 8, !tbaa !4
  %7 = call i32 @EVP_PKEY_up_ref(ptr noundef %6)
  %8 = icmp ne i32 %7, 0
  br i1 %8, label %10, label %9

9:                                                ; preds = %2
  store i32 0, ptr %3, align 4
  br label %18

10:                                               ; preds = %2
  %11 = load ptr, ptr %4, align 8, !tbaa !29
  %12 = load ptr, ptr %5, align 8, !tbaa !4
  %13 = call i32 @OSSL_CMP_CTX_set0_newPkey(ptr noundef %11, i32 noundef 1, ptr noundef %12)
  %14 = icmp ne i32 %13, 0
  br i1 %14, label %17, label %15

15:                                               ; preds = %10
  %16 = load ptr, ptr %5, align 8, !tbaa !4
  call void @EVP_PKEY_free(ptr noundef %16)
  store i32 0, ptr %3, align 4
  br label %18

17:                                               ; preds = %10
  store i32 1, ptr %3, align 4
  br label %18

18:                                               ; preds = %17, %15, %9
  %19 = load i32, ptr %3, align 4
  ret i32 %19
}

; Function Attrs: nounwind uwtable
define internal i32 @test_cmp_create_cr() #0 {
  %1 = alloca i32, align 4
  %2 = alloca ptr, align 8
  %3 = alloca i32, align 4
  %4 = alloca i32, align 4
  call void @llvm.lifetime.start.p0(i64 8, ptr %2) #4
  %5 = call ptr @set_up(ptr noundef @.str.34)
  store ptr %5, ptr %2, align 8, !tbaa !17
  call void @llvm.lifetime.start.p0(i64 4, ptr %3) #4
  store i32 0, ptr %3, align 4, !tbaa !19
  %6 = load ptr, ptr %2, align 8, !tbaa !17
  %7 = icmp eq ptr %6, null
  br i1 %7, label %8, label %9

8:                                                ; preds = %0
  store i32 0, ptr %1, align 4
  store i32 1, ptr %4, align 4
  br label %36

9:                                                ; preds = %0
  %10 = load ptr, ptr %2, align 8, !tbaa !17
  %11 = getelementptr inbounds nuw %struct.test_fixture, ptr %10, i32 0, i32 2
  store i32 2, ptr %11, align 8, !tbaa !21
  %12 = load ptr, ptr %2, align 8, !tbaa !17
  %13 = getelementptr inbounds nuw %struct.test_fixture, ptr %12, i32 0, i32 3
  store i32 -1, ptr %13, align 4, !tbaa !26
  %14 = load ptr, ptr %2, align 8, !tbaa !17
  %15 = getelementptr inbounds nuw %struct.test_fixture, ptr %14, i32 0, i32 6
  store i32 1, ptr %15, align 8, !tbaa !27
  %16 = load ptr, ptr %2, align 8, !tbaa !17
  %17 = getelementptr inbounds nuw %struct.test_fixture, ptr %16, i32 0, i32 1
  %18 = load ptr, ptr %17, align 8, !tbaa !28
  %19 = load ptr, ptr @newkey, align 8, !tbaa !4
  %20 = call i32 @set1_newPkey(ptr noundef %18, ptr noundef %19)
  %21 = icmp ne i32 %20, 0
  %22 = zext i1 %21 to i32
  %23 = call i32 @test_true(ptr noundef @.str.14, i32 noundef 198, ptr noundef @.str.45, i32 noundef %22)
  %24 = icmp ne i32 %23, 0
  br i1 %24, label %27, label %25

25:                                               ; preds = %9
  %26 = load ptr, ptr %2, align 8, !tbaa !17
  call void @tear_down(ptr noundef %26)
  store ptr null, ptr %2, align 8, !tbaa !17
  br label %27

27:                                               ; preds = %25, %9
  %28 = load ptr, ptr %2, align 8, !tbaa !17
  %29 = icmp ne ptr %28, null
  br i1 %29, label %30, label %34

30:                                               ; preds = %27
  %31 = load ptr, ptr %2, align 8, !tbaa !17
  %32 = call i32 @execute_certreq_create_test(ptr noundef %31)
  store i32 %32, ptr %3, align 4, !tbaa !19
  %33 = load ptr, ptr %2, align 8, !tbaa !17
  call void @tear_down(ptr noundef %33)
  br label %34

34:                                               ; preds = %30, %27
  %35 = load i32, ptr %3, align 4, !tbaa !19
  store i32 %35, ptr %1, align 4
  store i32 1, ptr %4, align 4
  br label %36

36:                                               ; preds = %34, %8
  call void @llvm.lifetime.end.p0(i64 4, ptr %3) #4
  call void @llvm.lifetime.end.p0(i64 8, ptr %2) #4
  %37 = load i32, ptr %1, align 4
  ret i32 %37
}